target datalayout = "e-m:e-p270:32:32-p271:32:32-p272:64:64-i64:64-i128:128-f80:128-n8:16:32:64-S128"
target triple = "x86_64-pc-linux-gnu"

%"struct.vcpkg::StringView" = type { ptr, i64 }
%"struct.vcpkg::Version" = type <{ %"class.std::__cxx11::basic_string", i32, [4 x i8] }>
%"class.std::__cxx11::basic_string" = type { %"struct.std::__cxx11::basic_string<char>::_Alloc_hider", i64, %union.anon }
%"struct.std::__cxx11::basic_string<char>::_Alloc_hider" = type { ptr }
%union.anon = type { i64, [8 x i8] }
%"struct.vcpkg::VersionSpec" = type { %"class.std::__cxx11::basic_string", %"struct.vcpkg::Version" }

@_ZN5vcpkg7VersionC1ENS_10StringViewEi = dso_local unnamed_addr alias void (ptr, ptr, i64, i32), ptr @_ZN5vcpkg7VersionC2ENS_10StringViewEi

; Function Attrs: mustprogress uwtable
define dso_local void @_ZN5vcpkg11VersionSpecC2ERKNSt7__cxx1112basic_stringIcSt11char_traitsIcESaIcEEES8_i(ptr noundef nonnull align 8 dereferenceable(72) %0, ptr noundef nonnull align 8 dereferenceable(32) %1, ptr noundef nonnull align 8 dereferenceable(32) %2, i32 noundef %3) unnamed_addr #2 align 2 personality ptr @__gxx_personality_v0 {
  %5 = alloca ptr, align 8
  %6 = alloca ptr, align 8
  %7 = alloca ptr, align 8
  %8 = alloca i32, align 4
  %9 = alloca %"struct.vcpkg::StringView", align 8
  %10 = alloca ptr, align 8
  %11 = alloca i32, align 4
  store ptr %0, ptr %5, align 8
  store ptr %1, ptr %6, align 8
  store ptr %2, ptr %7, align 8
  store i32 %3, ptr %8, align 4
  %12 = load ptr, ptr %5, align 8
  %13 = getelementptr inbounds %"struct.vcpkg::VersionSpec", ptr %12, i32 0, i32 0
  %14 = load ptr, ptr %6, align 8
  call void @_ZNSt7__cxx1112basic_stringIcSt11char_traitsIcESaIcEEC1ERKS4_(ptr noundef nonnull align 8 dereferenceable(32) %13, ptr noundef nonnull align 8 dereferenceable(32) %14)
  %15 = getelementptr inbounds %"struct.vcpkg::VersionSpec", ptr %12, i32 0, i32 1
  %16 = load ptr, ptr %7, align 8
  call void @_ZN5vcpkg10StringViewC1ERKNSt7__cxx1112basic_stringIcSt11char_traitsIcESaIcEEE(ptr noundef nonnull align 8 dereferenceable(16) %9, ptr noundef nonnull align 8 dereferenceable(32) %16) #13
  %17 = load i32, ptr %8, align 4
  %18 = getelementptr inbounds { ptr, i64 }, ptr %9, i32 0, i32 0
  %19 = load ptr, ptr %18, align 8
  %20 = getelementptr inbounds { ptr, i64 }, ptr %9, i32 0, i32 1
  %21 = load i64, ptr %20, align 8
  invoke void @_ZN5vcpkg7VersionC1ENS_10StringViewEi(ptr noundef nonnull align 8 dereferenceable(36) %15, ptr %19, i64 %21, i32 noundef %17)
          to label %22 unwind label %23

22:                                               ; preds = %4
  ret void

23:                                               ; preds = %4
  %24 = landingpad { ptr, i32 }
          cleanup
  %25 = extractvalue { ptr, i32 } %24, 0
  store ptr %25, ptr %10, align 8
  %26 = extractvalue { ptr, i32 } %24, 1
  store i32 %26, ptr %11, align 4
  call void @_ZNSt7__cxx1112basic_stringIcSt11char_traitsIcESaIcEED1Ev(ptr noundef nonnull align 8 dereferenceable(32) %13) #13
  br label %27

27:                                               ; preds = %23
  %28 = load ptr, ptr %10, align 8
  %29 = load i32, ptr %11, align 4
  %30 = insertvalue { ptr, i32 } poison, ptr %28, 0
  %31 = insertvalue { ptr, i32 } %30, i32 %29, 1
  resume { ptr, i32 } %31
}