; Function Attrs: mustprogress uwtable
define dso_local void @_ZN5vcpkg11VersionSpecC2ERKNSt7__cxx1112basic_stringIcSt11char_traitsIcESaIcEEES8_i(ptr noundef nonnull align 8 dereferenceable(72) %0, ptr noundef nonnull align 8 dereferenceable(32) %1, ptr noundef nonnull align 8 dereferenceable(32) %2, i32 noundef %3) unnamed_addr #2 align 2 personality ptr @__gxx_personality_v0 {
  %5 = alloca %"class.std::allocator", align 1
  %6 = alloca %"struct.vcpkg::StringView", align 8
  tail call void @_ZNSt7__cxx1112basic_stringIcSt11char_traitsIcESaIcEEC1ERKS4_(ptr noundef nonnull align 8 dereferenceable(32) %0, ptr noundef nonnull align 8 dereferenceable(32) %1)
  %7 = getelementptr inbounds i8, ptr %0, i64 32
  call void @_ZN5vcpkg10StringViewC1ERKNSt7__cxx1112basic_stringIcSt11char_traitsIcESaIcEEE(ptr noundef nonnull align 8 dereferenceable(16) %6, ptr noundef nonnull align 8 dereferenceable(32) %2) #19
  %8 = load ptr, ptr %6, align 8
  %9 = getelementptr inbounds i8, ptr %6, i64 8
  %10 = load i64, ptr %9, align 8
  call void @llvm.lifetime.start.p0(i64 1, ptr nonnull %5)
  call void @_ZNSaIcEC1Ev(ptr noundef nonnull align 1 dereferenceable(1) %5) #19
  invoke void @_ZNSt7__cxx1112basic_stringIcSt11char_traitsIcESaIcEEC1EPKcmRKS3_(ptr noundef nonnull align 8 dereferenceable(32) %7, ptr noundef %8, i64 noundef %10, ptr noundef nonnull align 1 dereferenceable(1) %5)
          to label %12 unwind label %.body

.body:                                            ; preds = %4
  %11 = landingpad { ptr, i32 }
          cleanup
  call void @_ZNSaIcED1Ev(ptr noundef nonnull align 1 dereferenceable(1) %5) #19
  call void @_ZNSt7__cxx1112basic_stringIcSt11char_traitsIcESaIcEED1Ev(ptr noundef nonnull align 8 dereferenceable(32) %0) #19
  resume { ptr, i32 } %11

12:                                               ; preds = %4
  call void @_ZNSaIcED1Ev(ptr noundef nonnull align 1 dereferenceable(1) %5) #19
  %13 = getelementptr inbounds i8, ptr %0, i64 64
  store i32 %3, ptr %13, align 8
  call void @llvm.lifetime.end.p0(i64 1, ptr nonnull %5)
  ret void
}